target datalayout = "e-m:e-p270:32:32-p271:32:32-p272:64:64-i64:64-i128:128-f80:128-n8:16:32:64-S128"
target triple = "x86_64-pc-linux-gnu"

%struct.hwloc_synthetic_indexes_s = type { ptr, i64, ptr, i32 }
%struct.hwloc_synthetic_attr_s = type { i32, i32, i32, i64, i64 }

@stderr = external global ptr, align 8
@.str.28 = private unnamed_addr constant [96 x i8] c"Missing attribute closing bracket in synthetic string doesn't have a number of objects at '%s'\0A\00", align 1
@.str.29 = private unnamed_addr constant [6 x i8] c"size=\00", align 1
@.str.30 = private unnamed_addr constant [8 x i8] c"memory=\00", align 1
@.str.31 = private unnamed_addr constant [21 x i8] c"memorysidecachesize=\00", align 1
@.str.32 = private unnamed_addr constant [9 x i8] c"indexes=\00", align 1
@.str.33 = private unnamed_addr constant [3 x i8] c" )\00", align 1
@.str.34 = private unnamed_addr constant [53 x i8] c"hwloc/synthetic: Ignoring unknown attribute at '%s'\0A\00", align 1
@.str.35 = private unnamed_addr constant [37 x i8] c"Missing parameter separator at '%s'\0A\00", align 1
@.str.36 = private unnamed_addr constant [61 x i8] c"Overwriting duplicate indexes attribute with last occurence\0A\00", align 1

; Function Attrs: inlinehint nounwind uwtable
define internal i32 @hwloc__obj_type_is_cache(i32 noundef %0) #5 {
  %2 = alloca i32, align 4
  store i32 %0, ptr %2, align 4, !tbaa !14
  %3 = load i32, ptr %2, align 4, !tbaa !14
  %4 = icmp uge i32 %3, 5
  br i1 %4, label %5, label %8

5:                                                ; preds = %1
  %6 = load i32, ptr %2, align 4, !tbaa !14
  %7 = icmp ule i32 %6, 12
  br label %8

8:                                                ; preds = %5, %1
  %9 = phi i1 [ false, %1 ], [ %7, %5 ]
  %10 = zext i1 %9 to i32
  ret i32 %10
}

; Function Attrs: nounwind uwtable
define internal i32 @hwloc_synthetic_parse_attrs(ptr noundef %0, ptr noundef %1, ptr noundef %2, ptr noundef %3, i32 noundef %4) #0 {
  %6 = alloca i32, align 4
  %7 = alloca ptr, align 8
  %8 = alloca ptr, align 8
  %9 = alloca ptr, align 8
  %10 = alloca ptr, align 8
  %11 = alloca i32, align 4
  %12 = alloca i32, align 4
  %13 = alloca ptr, align 8
  %14 = alloca i64, align 8
  %15 = alloca ptr, align 8
  %16 = alloca i64, align 8
  %17 = alloca i32, align 4
  %18 = alloca i32, align 4
  %19 = alloca i64, align 8
  store ptr %0, ptr %7, align 8, !tbaa !8
  store ptr %1, ptr %8, align 8, !tbaa !77
  store ptr %2, ptr %9, align 8, !tbaa !144
  store ptr %3, ptr %10, align 8, !tbaa !146
  store i32 %4, ptr %11, align 4, !tbaa !14
  call void @llvm.lifetime.start.p0(i64 4, ptr %12) #13
  %20 = load ptr, ptr %9, align 8, !tbaa !144
  %21 = getelementptr inbounds nuw %struct.hwloc_synthetic_attr_s, ptr %20, i32 0, i32 0
  %22 = load i32, ptr %21, align 8, !tbaa !148
  store i32 %22, ptr %12, align 4, !tbaa !14
  call void @llvm.lifetime.start.p0(i64 8, ptr %13) #13
  call void @llvm.lifetime.start.p0(i64 8, ptr %14) #13
  store i64 0, ptr %14, align 8, !tbaa !10
  call void @llvm.lifetime.start.p0(i64 8, ptr %15) #13
  store ptr null, ptr %15, align 8, !tbaa !8
  call void @llvm.lifetime.start.p0(i64 8, ptr %16) #13
  store i64 0, ptr %16, align 8, !tbaa !10
  %23 = load ptr, ptr %7, align 8, !tbaa !8
  %24 = call ptr @strchr(ptr noundef %23, i32 noundef 41) #14
  store ptr %24, ptr %13, align 8, !tbaa !8
  %25 = load ptr, ptr %13, align 8, !tbaa !8
  %26 = icmp ne ptr %25, null
  br i1 %26, label %36, label %27

27:                                               ; preds = %5
  %28 = load i32, ptr %11, align 4, !tbaa !14
  %29 = icmp ne i32 %28, 0
  br i1 %29, label %30, label %34

30:                                               ; preds = %27
  %31 = load ptr, ptr @stderr, align 8, !tbaa !43
  %32 = load ptr, ptr %7, align 8, !tbaa !8
  %33 = call i32 (ptr, ptr, ...) @fprintf(ptr noundef %31, ptr noundef @.str.28, ptr noundef %32) #13
  br label %34

34:                                               ; preds = %30, %27
  %35 = call ptr @__errno_location() #15
  store i32 22, ptr %35, align 4, !tbaa !14
  store i32 -1, ptr %6, align 4
  store i32 1, ptr %17, align 4
  br label %157

36:                                               ; preds = %5
  br label %37

37:                                               ; preds = %128, %36
  %38 = load ptr, ptr %7, align 8, !tbaa !8
  %39 = load i8, ptr %38, align 1, !tbaa !66
  %40 = sext i8 %39 to i32
  %41 = icmp ne i32 41, %40
  br i1 %41, label %42, label %129

42:                                               ; preds = %37
  call void @llvm.lifetime.start.p0(i64 4, ptr %18) #13
  %43 = load i32, ptr %12, align 4, !tbaa !14
  %44 = call i32 @hwloc__obj_type_is_cache(i32 noundef %43)
  store i32 %44, ptr %18, align 4, !tbaa !14
  %45 = load i32, ptr %18, align 4, !tbaa !14
  %46 = icmp ne i32 %45, 0
  br i1 %46, label %47, label %55

47:                                               ; preds = %42
  %48 = load ptr, ptr %7, align 8, !tbaa !8
  %49 = call i32 @strncmp(ptr noundef @.str.29, ptr noundef %48, i64 noundef 5) #14
  %50 = icmp ne i32 %49, 0
  br i1 %50, label %55, label %51

51:                                               ; preds = %47
  %52 = load ptr, ptr %7, align 8, !tbaa !8
  %53 = getelementptr inbounds i8, ptr %52, i64 5
  %54 = call i64 @hwloc_synthetic_parse_memory_attr(ptr noundef %53, ptr noundef %7)
  store i64 %54, ptr %14, align 8, !tbaa !10
  br label %102

55:                                               ; preds = %47, %42
  %56 = load i32, ptr %18, align 4, !tbaa !14
  %57 = icmp ne i32 %56, 0
  br i1 %57, label %66, label %58

58:                                               ; preds = %55
  %59 = load ptr, ptr %7, align 8, !tbaa !8
  %60 = call i32 @strncmp(ptr noundef @.str.30, ptr noundef %59, i64 noundef 7) #14
  %61 = icmp ne i32 %60, 0
  br i1 %61, label %66, label %62

62:                                               ; preds = %58
  %63 = load ptr, ptr %7, align 8, !tbaa !8
  %64 = getelementptr inbounds i8, ptr %63, i64 7
  %65 = call i64 @hwloc_synthetic_parse_memory_attr(ptr noundef %64, ptr noundef %7)
  store i64 %65, ptr %14, align 8, !tbaa !10
  br label %101

66:                                               ; preds = %58, %55
  %67 = load ptr, ptr %7, align 8, !tbaa !8
  %68 = call i32 @strncmp(ptr noundef @.str.31, ptr noundef %67, i64 noundef 20) #14
  %69 = icmp ne i32 %68, 0
  br i1 %69, label %76, label %70

70:                                               ; preds = %66
  %71 = load ptr, ptr %7, align 8, !tbaa !8
  %72 = getelementptr inbounds i8, ptr %71, i64 20
  %73 = call i64 @hwloc_synthetic_parse_memory_attr(ptr noundef %72, ptr noundef %7)
  %74 = load ptr, ptr %9, align 8, !tbaa !144
  %75 = getelementptr inbounds nuw %struct.hwloc_synthetic_attr_s, ptr %74, i32 0, i32 4
  store i64 %73, ptr %75, align 8, !tbaa !149
  br label %100

76:                                               ; preds = %66
  %77 = load ptr, ptr %7, align 8, !tbaa !8
  %78 = call i32 @strncmp(ptr noundef @.str.32, ptr noundef %77, i64 noundef 8) #14
  %79 = icmp ne i32 %78, 0
  br i1 %79, label %90, label %80

80:                                               ; preds = %76
  %81 = load ptr, ptr %7, align 8, !tbaa !8
  %82 = getelementptr inbounds i8, ptr %81, i64 8
  store ptr %82, ptr %15, align 8, !tbaa !8
  %83 = load ptr, ptr %7, align 8, !tbaa !8
  %84 = getelementptr inbounds i8, ptr %83, i64 8
  store ptr %84, ptr %7, align 8, !tbaa !8
  %85 = load ptr, ptr %7, align 8, !tbaa !8
  %86 = call i64 @strcspn(ptr noundef %85, ptr noundef @.str.33) #14
  store i64 %86, ptr %16, align 8, !tbaa !10
  %87 = load i64, ptr %16, align 8, !tbaa !10
  %88 = load ptr, ptr %7, align 8, !tbaa !8
  %89 = getelementptr inbounds nuw i8, ptr %88, i64 %87
  store ptr %89, ptr %7, align 8, !tbaa !8
  br label %99

90:                                               ; preds = %76
  call void @llvm.lifetime.start.p0(i64 8, ptr %19) #13
  %91 = load ptr, ptr %7, align 8, !tbaa !8
  %92 = call i64 @strcspn(ptr noundef %91, ptr noundef @.str.33) #14
  store i64 %92, ptr %19, align 8, !tbaa !10
  %93 = load ptr, ptr @stderr, align 8, !tbaa !43
  %94 = load ptr, ptr %7, align 8, !tbaa !8
  %95 = call i32 (ptr, ptr, ...) @fprintf(ptr noundef %93, ptr noundef @.str.34, ptr noundef %94) #13
  %96 = load i64, ptr %19, align 8, !tbaa !10
  %97 = load ptr, ptr %7, align 8, !tbaa !8
  %98 = getelementptr inbounds nuw i8, ptr %97, i64 %96
  store ptr %98, ptr %7, align 8, !tbaa !8
  call void @llvm.lifetime.end.p0(i64 8, ptr %19) #13
  br label %99

99:                                               ; preds = %90, %80
  br label %100

100:                                              ; preds = %99, %70
  br label %101

101:                                              ; preds = %100, %62
  br label %102

102:                                              ; preds = %101, %51
  %103 = load ptr, ptr %7, align 8, !tbaa !8
  %104 = load i8, ptr %103, align 1, !tbaa !66
  %105 = sext i8 %104 to i32
  %106 = icmp eq i32 32, %105
  br i1 %106, label %107, label %110

107:                                              ; preds = %102
  %108 = load ptr, ptr %7, align 8, !tbaa !8
  %109 = getelementptr inbounds nuw i8, ptr %108, i32 1
  store ptr %109, ptr %7, align 8, !tbaa !8
  br label %125

110:                                              ; preds = %102
  %111 = load ptr, ptr %7, align 8, !tbaa !8
  %112 = load i8, ptr %111, align 1, !tbaa !66
  %113 = sext i8 %112 to i32
  %114 = icmp ne i32 41, %113
  br i1 %114, label %115, label %124

115:                                              ; preds = %110
  %116 = load i32, ptr %11, align 4, !tbaa !14
  %117 = icmp ne i32 %116, 0
  br i1 %117, label %118, label %122

118:                                              ; preds = %115
  %119 = load ptr, ptr @stderr, align 8, !tbaa !43
  %120 = load ptr, ptr %7, align 8, !tbaa !8
  %121 = call i32 (ptr, ptr, ...) @fprintf(ptr noundef %119, ptr noundef @.str.35, ptr noundef %120) #13
  br label %122

122:                                              ; preds = %118, %115
  %123 = call ptr @__errno_location() #15
  store i32 22, ptr %123, align 4, !tbaa !14
  store i32 -1, ptr %6, align 4
  store i32 1, ptr %17, align 4
  br label %126

124:                                              ; preds = %110
  br label %125

125:                                              ; preds = %124, %107
  store i32 0, ptr %17, align 4
  br label %126

126:                                              ; preds = %125, %122
  call void @llvm.lifetime.end.p0(i64 4, ptr %18) #13
  %127 = load i32, ptr %17, align 4
  switch i32 %127, label %157 [
    i32 0, label %128
  ]

128:                                              ; preds = %126
  br label %37, !llvm.loop !150

129:                                              ; preds = %37
  %130 = load i64, ptr %14, align 8, !tbaa !10
  %131 = load ptr, ptr %9, align 8, !tbaa !144
  %132 = getelementptr inbounds nuw %struct.hwloc_synthetic_attr_s, ptr %131, i32 0, i32 3
  store i64 %130, ptr %132, align 8, !tbaa !151
  %133 = load ptr, ptr %15, align 8, !tbaa !8
  %134 = icmp ne ptr %133, null
  br i1 %134, label %135, label %153

135:                                              ; preds = %129
  %136 = load ptr, ptr %10, align 8, !tbaa !146
  %137 = getelementptr inbounds nuw %struct.hwloc_synthetic_indexes_s, ptr %136, i32 0, i32 0
  %138 = load ptr, ptr %137, align 8, !tbaa !152
  %139 = icmp ne ptr %138, null
  br i1 %139, label %140, label %146

140:                                              ; preds = %135
  %141 = load i32, ptr %11, align 4, !tbaa !14
  %142 = icmp ne i32 %141, 0
  br i1 %142, label %143, label %146

143:                                              ; preds = %140
  %144 = load ptr, ptr @stderr, align 8, !tbaa !43
  %145 = call i32 (ptr, ptr, ...) @fprintf(ptr noundef %144, ptr noundef @.str.36) #13
  br label %146

146:                                              ; preds = %143, %140, %135
  %147 = load ptr, ptr %15, align 8, !tbaa !8
  %148 = load ptr, ptr %10, align 8, !tbaa !146
  %149 = getelementptr inbounds nuw %struct.hwloc_synthetic_indexes_s, ptr %148, i32 0, i32 0
  store ptr %147, ptr %149, align 8, !tbaa !152
  %150 = load i64, ptr %16, align 8, !tbaa !10
  %151 = load ptr, ptr %10, align 8, !tbaa !146
  %152 = getelementptr inbounds nuw %struct.hwloc_synthetic_indexes_s, ptr %151, i32 0, i32 1
  store i64 %150, ptr %152, align 8, !tbaa !153
  br label %153

153:                                              ; preds = %146, %129
  %154 = load ptr, ptr %13, align 8, !tbaa !8
  %155 = getelementptr inbounds i8, ptr %154, i64 1
  %156 = load ptr, ptr %8, align 8, !tbaa !77
  store ptr %155, ptr %156, align 8, !tbaa !8
  store i32 0, ptr %6, align 4
  store i32 1, ptr %17, align 4
  br label %157

157:                                              ; preds = %153, %126, %34
  call void @llvm.lifetime.end.p0(i64 8, ptr %16) #13
  call void @llvm.lifetime.end.p0(i64 8, ptr %15) #13
  call void @llvm.lifetime.end.p0(i64 8, ptr %14) #13
  call void @llvm.lifetime.end.p0(i64 8, ptr %13) #13
  call void @llvm.lifetime.end.p0(i64 4, ptr %12) #13
  %158 = load i32, ptr %6, align 4
  ret i32 %158
}