; Function Attrs: nofree nounwind uwtable
define internal fastcc range(i32 -1, 1) i32 @hwloc_synthetic_parse_attrs(ptr noundef %0, ptr noundef nonnull writeonly captures(none) %1, ptr noundef nonnull captures(none) %2, ptr noundef nonnull captures(none) %3, i32 noundef %4) unnamed_addr #7 {
  %6 = alloca ptr, align 8
  store ptr %0, ptr %6, align 8, !tbaa !81
  %7 = load i32, ptr %2, align 8, !tbaa !107
  %8 = tail call ptr @strchr(ptr noundef nonnull dereferenceable(1) %0, i32 noundef 41) #21
  %.not = icmp eq ptr %8, null
  br i1 %.not, label %41, label %.preheader

.preheader:                                       ; preds = %5
  %9 = load i8, ptr %0, align 1, !tbaa !56
  %.not3246 = icmp eq i8 %9, 41
  br i1 %.not3246, label %._crit_edge.thread, label %.lr.ph

._crit_edge.thread:                               ; preds = %.preheader
  %10 = getelementptr inbounds nuw i8, ptr %2, i64 16
  store i64 0, ptr %10, align 8, !tbaa !109
  br label %88

.lr.ph:                                           ; preds = %.preheader
  %11 = add i32 %7, -13
  %12 = icmp ult i32 %11, -8
  %13 = getelementptr inbounds nuw i8, ptr %2, i64 24
  br i1 %12, label %.critedge.us, label %.lr.ph.split

.critedge.us:                                     ; preds = %.lr.ph, %38
  %14 = phi ptr [ %39, %38 ], [ %0, %.lr.ph ]
  %.02349.us = phi i64 [ %.124.us, %38 ], [ 0, %.lr.ph ]
  %.02648.us = phi i64 [ %.127.us, %38 ], [ 0, %.lr.ph ]
  %.02847.us = phi ptr [ %.129.us, %38 ], [ null, %.lr.ph ]
  %15 = tail call i32 @strncmp(ptr noundef nonnull dereferenceable(8) @.str.30, ptr noundef nonnull dereferenceable(1) %14, i64 noundef 7) #21
  %.not36.us = icmp eq i32 %15, 0
  br i1 %.not36.us, label %32, label %16

16:                                               ; preds = %.critedge.us
  %17 = tail call i32 @strncmp(ptr noundef nonnull dereferenceable(21) @.str.31, ptr noundef nonnull dereferenceable(1) %14, i64 noundef 20) #21
  %.not37.us = icmp eq i32 %17, 0
  br i1 %.not37.us, label %29, label %18

18:                                               ; preds = %16
  %19 = tail call i32 @strncmp(ptr noundef nonnull dereferenceable(9) @.str.32, ptr noundef nonnull dereferenceable(1) %14, i64 noundef 8) #21
  %.not38.us = icmp eq i32 %19, 0
  br i1 %.not38.us, label %25, label %20

20:                                               ; preds = %18
  %21 = tail call i64 @strcspn(ptr noundef nonnull %14, ptr noundef nonnull @.str.33) #21
  %22 = load ptr, ptr @stderr, align 8, !tbaa !37
  %23 = tail call i32 (ptr, ptr, ...) @fprintf(ptr noundef %22, ptr noundef nonnull @.str.34, ptr noundef nonnull %14) #26
  %24 = getelementptr inbounds nuw i8, ptr %14, i64 %21
  store ptr %24, ptr %6, align 8, !tbaa !81
  br label %35

25:                                               ; preds = %18
  %26 = getelementptr inbounds nuw i8, ptr %14, i64 8
  %27 = tail call i64 @strcspn(ptr noundef nonnull %26, ptr noundef nonnull @.str.33) #21
  %28 = getelementptr inbounds nuw i8, ptr %26, i64 %27
  store ptr %28, ptr %6, align 8, !tbaa !81
  br label %35

29:                                               ; preds = %16
  %30 = getelementptr inbounds nuw i8, ptr %14, i64 20
  %31 = call fastcc i64 @hwloc_synthetic_parse_memory_attr(ptr noundef nonnull %30, ptr noundef %6)
  store i64 %31, ptr %13, align 8, !tbaa !132
  br label %35

32:                                               ; preds = %.critedge.us
  %33 = getelementptr inbounds nuw i8, ptr %14, i64 7
  %34 = call fastcc i64 @hwloc_synthetic_parse_memory_attr(ptr noundef nonnull %33, ptr noundef %6)
  br label %35

35:                                               ; preds = %32, %29, %25, %20
  %.129.us = phi ptr [ %.02847.us, %20 ], [ %26, %25 ], [ %.02847.us, %29 ], [ %.02847.us, %32 ]
  %.127.us = phi i64 [ %.02648.us, %20 ], [ %27, %25 ], [ %.02648.us, %29 ], [ %.02648.us, %32 ]
  %.124.us = phi i64 [ %.02349.us, %20 ], [ %.02349.us, %25 ], [ %.02349.us, %29 ], [ %34, %32 ]
  %36 = load ptr, ptr %6, align 8, !tbaa !81
  %37 = load i8, ptr %36, align 1, !tbaa !56
  switch i8 %37, label %.split.us [
    i8 32, label %38
    i8 41, label %._crit_edge
  ]

38:                                               ; preds = %35
  %39 = getelementptr inbounds nuw i8, ptr %36, i64 1
  store ptr %39, ptr %6, align 8, !tbaa !81
  %.pre66 = load i8, ptr %39, align 1, !tbaa !56
  %40 = icmp eq i8 %.pre66, 41
  br i1 %40, label %._crit_edge, label %.critedge.us, !llvm.loop !133

41:                                               ; preds = %5
  %.not31 = icmp eq i32 %4, 0
  br i1 %.not31, label %45, label %42

42:                                               ; preds = %41
  %43 = load ptr, ptr @stderr, align 8, !tbaa !37
  %44 = tail call i32 (ptr, ptr, ...) @fprintf(ptr noundef %43, ptr noundef nonnull @.str.28, ptr noundef nonnull %0) #26
  br label %45

45:                                               ; preds = %42, %41
  %46 = tail call ptr @__errno_location() #24
  store i32 22, ptr %46, align 4, !tbaa !58
  br label %90

.lr.ph.split:                                     ; preds = %.lr.ph, %75
  %47 = phi ptr [ %76, %75 ], [ %0, %.lr.ph ]
  %.02349 = phi i64 [ %.124, %75 ], [ 0, %.lr.ph ]
  %.02648 = phi i64 [ %.127, %75 ], [ 0, %.lr.ph ]
  %.02847 = phi ptr [ %.129, %75 ], [ null, %.lr.ph ]
  %48 = tail call i32 @strncmp(ptr noundef nonnull dereferenceable(6) @.str.29, ptr noundef nonnull dereferenceable(1) %47, i64 noundef 5) #21
  %.not35 = icmp eq i32 %48, 0
  br i1 %.not35, label %49, label %52

49:                                               ; preds = %.lr.ph.split
  %50 = getelementptr inbounds nuw i8, ptr %47, i64 5
  %51 = call fastcc i64 @hwloc_synthetic_parse_memory_attr(ptr noundef nonnull %50, ptr noundef %6)
  br label %68

52:                                               ; preds = %.lr.ph.split
  %53 = tail call i32 @strncmp(ptr noundef nonnull dereferenceable(21) @.str.31, ptr noundef nonnull dereferenceable(1) %47, i64 noundef 20) #21
  %.not37 = icmp eq i32 %53, 0
  br i1 %.not37, label %54, label %57

54:                                               ; preds = %52
  %55 = getelementptr inbounds nuw i8, ptr %47, i64 20
  %56 = call fastcc i64 @hwloc_synthetic_parse_memory_attr(ptr noundef nonnull %55, ptr noundef %6)
  store i64 %56, ptr %13, align 8, !tbaa !132
  br label %68

57:                                               ; preds = %52
  %58 = tail call i32 @strncmp(ptr noundef nonnull dereferenceable(9) @.str.32, ptr noundef nonnull dereferenceable(1) %47, i64 noundef 8) #21
  %.not38 = icmp eq i32 %58, 0
  br i1 %.not38, label %59, label %63

59:                                               ; preds = %57
  %60 = getelementptr inbounds nuw i8, ptr %47, i64 8
  %61 = tail call i64 @strcspn(ptr noundef nonnull %60, ptr noundef nonnull @.str.33) #21
  %62 = getelementptr inbounds nuw i8, ptr %60, i64 %61
  store ptr %62, ptr %6, align 8, !tbaa !81
  br label %68

63:                                               ; preds = %57
  %64 = tail call i64 @strcspn(ptr noundef nonnull %47, ptr noundef nonnull @.str.33) #21
  %65 = load ptr, ptr @stderr, align 8, !tbaa !37
  %66 = tail call i32 (ptr, ptr, ...) @fprintf(ptr noundef %65, ptr noundef nonnull @.str.34, ptr noundef nonnull %47) #26
  %67 = getelementptr inbounds nuw i8, ptr %47, i64 %64
  store ptr %67, ptr %6, align 8, !tbaa !81
  br label %68

68:                                               ; preds = %59, %63, %54, %49
  %.129 = phi ptr [ %.02847, %63 ], [ %60, %59 ], [ %.02847, %54 ], [ %.02847, %49 ]
  %.127 = phi i64 [ %.02648, %63 ], [ %61, %59 ], [ %.02648, %54 ], [ %.02648, %49 ]
  %.124 = phi i64 [ %.02349, %63 ], [ %.02349, %59 ], [ %.02349, %54 ], [ %51, %49 ]
  %69 = load ptr, ptr %6, align 8, !tbaa !81
  %70 = load i8, ptr %69, align 1, !tbaa !56
  switch i8 %70, label %.split.us [
    i8 32, label %75
    i8 41, label %._crit_edge
  ]

.split.us:                                        ; preds = %68, %35
  %.us-phi = phi ptr [ %36, %35 ], [ %69, %68 ]
  %.not40 = icmp eq i32 %4, 0
  br i1 %.not40, label %.critedge42, label %71

71:                                               ; preds = %.split.us
  %72 = load ptr, ptr @stderr, align 8, !tbaa !37
  %73 = tail call i32 (ptr, ptr, ...) @fprintf(ptr noundef %72, ptr noundef nonnull @.str.35, ptr noundef nonnull %.us-phi) #26
  br label %.critedge42

.critedge42:                                      ; preds = %71, %.split.us
  %74 = tail call ptr @__errno_location() #24
  store i32 22, ptr %74, align 4, !tbaa !58
  br label %90

75:                                               ; preds = %68
  %76 = getelementptr inbounds nuw i8, ptr %69, i64 1
  store ptr %76, ptr %6, align 8, !tbaa !81
  %.pre = load i8, ptr %76, align 1, !tbaa !56
  %77 = icmp eq i8 %.pre, 41
  br i1 %77, label %._crit_edge, label %.lr.ph.split, !llvm.loop !133

._crit_edge:                                      ; preds = %68, %75, %35, %38
  %.028.lcssa = phi ptr [ %.129.us, %38 ], [ %.129.us, %35 ], [ %.129, %75 ], [ %.129, %68 ]
  %.026.lcssa = phi i64 [ %.127.us, %38 ], [ %.127.us, %35 ], [ %.127, %75 ], [ %.127, %68 ]
  %.023.lcssa = phi i64 [ %.124.us, %38 ], [ %.124.us, %35 ], [ %.124, %75 ], [ %.124, %68 ]
  %78 = getelementptr inbounds nuw i8, ptr %2, i64 16
  store i64 %.023.lcssa, ptr %78, align 8, !tbaa !109
  %.not33 = icmp eq ptr %.028.lcssa, null
  br i1 %.not33, label %88, label %79

79:                                               ; preds = %._crit_edge
  %80 = load ptr, ptr %3, align 8, !tbaa !134
  %81 = icmp ne ptr %80, null
  %82 = icmp ne i32 %4, 0
  %or.cond = and i1 %82, %81
  br i1 %or.cond, label %83, label %86

83:                                               ; preds = %79
  %84 = load ptr, ptr @stderr, align 8, !tbaa !37
  %85 = tail call i64 @fwrite(ptr nonnull @.str.36, i64 60, i64 1, ptr %84) #23
  br label %86

86:                                               ; preds = %83, %79
  store ptr %.028.lcssa, ptr %3, align 8, !tbaa !134
  %87 = getelementptr inbounds nuw i8, ptr %3, i64 8
  store i64 %.026.lcssa, ptr %87, align 8, !tbaa !135
  br label %88

88:                                               ; preds = %._crit_edge.thread, %86, %._crit_edge
  %89 = getelementptr inbounds nuw i8, ptr %8, i64 1
  store ptr %89, ptr %1, align 8, !tbaa !81
  br label %90

90:                                               ; preds = %.critedge42, %88, %45
  %.0 = phi i32 [ 0, %88 ], [ -1, %45 ], [ -1, %.critedge42 ]
  ret i32 %.0
}